target datalayout = "e-m:e-p270:32:32-p271:32:32-p272:64:64-i64:64-i128:128-f80:128-n8:16:32:64-S128"
target triple = "x86_64-pc-linux-gnu"

%struct.quicklist = type { ptr, ptr, i64, i64, i64, [0 x %struct.quicklistBookmark] }
%struct.quicklistBookmark = type { ptr, ptr }

; Function Attrs: nounwind uwtable
define dso_local void @_quicklistBookmarkDelete(ptr noundef %0, ptr noundef %1) #0 {
  %3 = alloca ptr, align 8
  %4 = alloca ptr, align 8
  %5 = alloca i32, align 4
  store ptr %0, ptr %3, align 8, !tbaa !9
  store ptr %1, ptr %4, align 8, !tbaa !36
  call void @llvm.lifetime.start.p0(i64 4, ptr %5) #10
  %6 = load ptr, ptr %4, align 8, !tbaa !36
  %7 = load ptr, ptr %3, align 8, !tbaa !9
  %8 = getelementptr inbounds nuw %struct.quicklist, ptr %7, i32 0, i32 5
  %9 = getelementptr inbounds [0 x %struct.quicklistBookmark], ptr %8, i64 0, i64 0
  %10 = ptrtoint ptr %6 to i64
  %11 = ptrtoint ptr %9 to i64
  %12 = sub i64 %10, %11
  %13 = sdiv exact i64 %12, 16
  %14 = trunc i64 %13 to i32
  store i32 %14, ptr %5, align 4, !tbaa !14
  %15 = load ptr, ptr %4, align 8, !tbaa !36
  %16 = getelementptr inbounds nuw %struct.quicklistBookmark, ptr %15, i32 0, i32 1
  %17 = load ptr, ptr %16, align 8, !tbaa !24
  call void @zfree(ptr noundef %17)
  %18 = load ptr, ptr %3, align 8, !tbaa !9
  %19 = getelementptr inbounds nuw %struct.quicklist, ptr %18, i32 0, i32 4
  %20 = load i64, ptr %19, align 8
  %21 = lshr i64 %20, 32
  %22 = and i64 %21, 15
  %23 = trunc i64 %22 to i32
  %24 = add i32 %23, -1
  %25 = zext i32 %24 to i64
  %26 = load i64, ptr %19, align 8
  %27 = and i64 %25, 15
  %28 = shl i64 %27, 32
  %29 = and i64 %26, -64424509441
  %30 = or i64 %29, %28
  store i64 %30, ptr %19, align 8
  %31 = load ptr, ptr %4, align 8, !tbaa !36
  %32 = load ptr, ptr %4, align 8, !tbaa !36
  %33 = getelementptr inbounds %struct.quicklistBookmark, ptr %32, i64 1
  %34 = load ptr, ptr %3, align 8, !tbaa !9
  %35 = getelementptr inbounds nuw %struct.quicklist, ptr %34, i32 0, i32 4
  %36 = load i64, ptr %35, align 8
  %37 = lshr i64 %36, 32
  %38 = and i64 %37, 15
  %39 = trunc i64 %38 to i32
  %40 = load i32, ptr %5, align 4, !tbaa !14
  %41 = sub nsw i32 %39, %40
  %42 = sext i32 %41 to i64
  %43 = mul i64 %42, 16
  call void @llvm.memmove.p0.p0.i64(ptr align 8 %31, ptr align 8 %33, i64 %43, i1 false)
  call void @llvm.lifetime.end.p0(i64 4, ptr %5) #10
  ret void
}