; Function Attrs: nounwind uwtable
define dso_local void @_quicklistBookmarkDelete(ptr noundef %0, ptr noundef %1) local_unnamed_addr #1 {
  %3 = getelementptr inbounds nuw i8, ptr %0, i64 40
  %4 = ptrtoint ptr %1 to i64
  %5 = ptrtoint ptr %3 to i64
  %.neg = sub i64 %5, %4
  %6 = getelementptr inbounds nuw i8, ptr %1, i64 8
  %7 = load ptr, ptr %6, align 8, !tbaa !20
  tail call void @zfree(ptr noundef %7) #23
  %8 = getelementptr inbounds nuw i8, ptr %0, i64 32
  %9 = load i64, ptr %8, align 8
  %10 = add i64 %9, 64424509440
  %11 = and i64 %10, 64424509440
  %12 = and i64 %9, -64424509441
  %13 = or disjoint i64 %11, %12
  store i64 %13, ptr %8, align 8
  %14 = getelementptr inbounds nuw i8, ptr %1, i64 16
  %.neg7 = shl i64 %.neg, 28
  %sext = add i64 %11, %.neg7
  %15 = ashr exact i64 %sext, 28
  %16 = and i64 %15, -16
  tail call void @llvm.memmove.p0.p0.i64(ptr align 8 %1, ptr nonnull align 8 %14, i64 %16, i1 false)
  ret void
}